target datalayout = "e-m:e-p270:32:32-p271:32:32-p272:64:64-i64:64-i128:128-f80:128-n8:16:32:64-S128"
target triple = "x86_64-pc-linux-gnu"

%struct.expert_field = type { i32, i32 }
%struct._packet_info = type { ptr, ptr, i32, i32, %struct.nstime_t, %struct.nstime_t, %struct.nstime_t, i8, ptr, ptr, ptr, ptr, %struct._address, %struct._address, %struct._address, %struct._address, %struct._address, %struct._address, i32, ptr, i8, [3 x i8], %struct.anon, i32, i32, i32, i32, ptr, i8, ptr, ptr, i16, i16, i32, i32, i16, i32, i32, ptr, ptr, ptr, i8, i8, i16, i16, i16, i32, i16, i16, ptr, ptr, ptr, ptr, ptr, i32, i32 }
%struct.nstime_t = type { i64, i32 }
%struct._address = type { i32, i32, ptr, ptr }
%struct.anon = type { i8, [3 x i8] }

@ei_gsm_a_gm_extraneous_data = internal global %struct.expert_field zeroinitializer, align 4
@.str.83 = private unnamed_addr constant [1 x i8] zeroinitializer, align 1
@ei_gsm_a_gm_missing_mandatory_element = internal global %struct.expert_field zeroinitializer, align 4
@.str.1095 = private unnamed_addr constant [62 x i8] c"Missing Mandatory element %s%s, rest of dissection is suspect\00", align 1
@.str.1128 = private unnamed_addr constant [22 x i8] c" - Requested LLC SAPI\00", align 1
@.str.1143 = private unnamed_addr constant [24 x i8] c" - Requested MBMS NSAPI\00", align 1
@.str.1144 = private unnamed_addr constant [31 x i8] c" - Requested multicast address\00", align 1

; Function Attrs: null_pointer_is_valid sspstrong uwtable
define internal void @dtap_sm_act_mbms_req(ptr noundef %0, ptr noundef %1, ptr noundef %2, i32 noundef %3, i32 noundef %4) #1 {
  %6 = alloca ptr, align 8
  %7 = alloca ptr, align 8
  %8 = alloca ptr, align 8
  %9 = alloca i32, align 4
  %10 = alloca i32, align 4
  %11 = alloca i32, align 4
  %12 = alloca i32, align 4
  %13 = alloca i32, align 4
  %14 = alloca i32, align 4
  store ptr %0, ptr %6, align 8
  store ptr %1, ptr %7, align 8
  store ptr %2, ptr %8, align 8
  store i32 %3, ptr %9, align 4
  store i32 %4, ptr %10, align 4
  call void @llvm.lifetime.start.p0(i64 4, ptr %11) #6
  call void @llvm.lifetime.start.p0(i64 4, ptr %12) #6
  call void @llvm.lifetime.start.p0(i64 4, ptr %13) #6
  %15 = load i32, ptr %9, align 4
  store i32 %15, ptr %11, align 4
  %16 = load i32, ptr %10, align 4
  store i32 %16, ptr %13, align 4
  %17 = load ptr, ptr %8, align 8
  %18 = getelementptr inbounds nuw %struct._packet_info, ptr %17, i32 0, i32 37
  store i32 1, ptr %18, align 4
  %19 = load i32, ptr %13, align 4
  %20 = icmp sgt i32 %19, 0
  br i1 %20, label %21, label %36

21:                                               ; preds = %5
  %22 = load ptr, ptr %6, align 8
  %23 = load ptr, ptr %7, align 8
  %24 = load ptr, ptr %8, align 8
  %25 = load i32, ptr %11, align 4
  %26 = call zeroext i16 @elem_v(ptr noundef %22, ptr noundef %23, ptr noundef %24, i32 noundef 5, i32 noundef 61, i32 noundef %25, ptr noundef @.str.1143)
  %27 = zext i16 %26 to i32
  store i32 %27, ptr %12, align 4
  %28 = icmp ugt i32 %27, 0
  br i1 %28, label %29, label %36

29:                                               ; preds = %21
  %30 = load i32, ptr %12, align 4
  %31 = load i32, ptr %11, align 4
  %32 = add i32 %31, %30
  store i32 %32, ptr %11, align 4
  %33 = load i32, ptr %12, align 4
  %34 = load i32, ptr %13, align 4
  %35 = sub i32 %34, %33
  store i32 %35, ptr %13, align 4
  br label %43

36:                                               ; preds = %21, %5
  %37 = load ptr, ptr %7, align 8
  %38 = load ptr, ptr %8, align 8
  %39 = load ptr, ptr %6, align 8
  %40 = load i32, ptr %11, align 4
  %41 = call ptr @get_gsm_a_msg_string(i32 noundef 5, i32 noundef 61)
  %42 = call ptr (ptr, ptr, ptr, ptr, i32, i32, ptr, ...) @proto_tree_add_expert_format(ptr noundef %37, ptr noundef %38, ptr noundef @ei_gsm_a_gm_missing_mandatory_element, ptr noundef %39, i32 noundef %40, i32 noundef 0, ptr noundef @.str.1095, ptr noundef %41, ptr noundef @.str.1143)
  br label %43

43:                                               ; preds = %36, %29
  %44 = load i32, ptr %13, align 4
  %45 = icmp sgt i32 %44, 0
  br i1 %45, label %46, label %61

46:                                               ; preds = %43
  %47 = load ptr, ptr %6, align 8
  %48 = load ptr, ptr %7, align 8
  %49 = load ptr, ptr %8, align 8
  %50 = load i32, ptr %11, align 4
  %51 = call zeroext i16 @elem_v(ptr noundef %47, ptr noundef %48, ptr noundef %49, i32 noundef 5, i32 noundef 54, i32 noundef %50, ptr noundef @.str.1128)
  %52 = zext i16 %51 to i32
  store i32 %52, ptr %12, align 4
  %53 = icmp ugt i32 %52, 0
  br i1 %53, label %54, label %61

54:                                               ; preds = %46
  %55 = load i32, ptr %12, align 4
  %56 = load i32, ptr %11, align 4
  %57 = add i32 %56, %55
  store i32 %57, ptr %11, align 4
  %58 = load i32, ptr %12, align 4
  %59 = load i32, ptr %13, align 4
  %60 = sub i32 %59, %58
  store i32 %60, ptr %13, align 4
  br label %68

61:                                               ; preds = %46, %43
  %62 = load ptr, ptr %7, align 8
  %63 = load ptr, ptr %8, align 8
  %64 = load ptr, ptr %6, align 8
  %65 = load i32, ptr %11, align 4
  %66 = call ptr @get_gsm_a_msg_string(i32 noundef 5, i32 noundef 54)
  %67 = call ptr (ptr, ptr, ptr, ptr, i32, i32, ptr, ...) @proto_tree_add_expert_format(ptr noundef %62, ptr noundef %63, ptr noundef @ei_gsm_a_gm_missing_mandatory_element, ptr noundef %64, i32 noundef %65, i32 noundef 0, ptr noundef @.str.1095, ptr noundef %66, ptr noundef @.str.1128)
  br label %68

68:                                               ; preds = %61, %54
  %69 = load i32, ptr %13, align 4
  %70 = icmp sgt i32 %69, 0
  br i1 %70, label %71, label %87

71:                                               ; preds = %68
  %72 = load ptr, ptr %6, align 8
  %73 = load ptr, ptr %7, align 8
  %74 = load ptr, ptr %8, align 8
  %75 = load i32, ptr %11, align 4
  %76 = load i32, ptr %13, align 4
  %77 = call zeroext i16 @elem_lv(ptr noundef %72, ptr noundef %73, ptr noundef %74, i32 noundef 5, i32 noundef 59, i32 noundef %75, i32 noundef %76, ptr noundef null)
  %78 = zext i16 %77 to i32
  store i32 %78, ptr %12, align 4
  %79 = icmp ugt i32 %78, 0
  br i1 %79, label %80, label %87

80:                                               ; preds = %71
  %81 = load i32, ptr %12, align 4
  %82 = load i32, ptr %11, align 4
  %83 = add i32 %82, %81
  store i32 %83, ptr %11, align 4
  %84 = load i32, ptr %12, align 4
  %85 = load i32, ptr %13, align 4
  %86 = sub i32 %85, %84
  store i32 %86, ptr %13, align 4
  br label %94

87:                                               ; preds = %71, %68
  %88 = load ptr, ptr %7, align 8
  %89 = load ptr, ptr %8, align 8
  %90 = load ptr, ptr %6, align 8
  %91 = load i32, ptr %11, align 4
  %92 = call ptr @get_gsm_a_msg_string(i32 noundef 5, i32 noundef 59)
  %93 = call ptr (ptr, ptr, ptr, ptr, i32, i32, ptr, ...) @proto_tree_add_expert_format(ptr noundef %88, ptr noundef %89, ptr noundef @ei_gsm_a_gm_missing_mandatory_element, ptr noundef %90, i32 noundef %91, i32 noundef 0, ptr noundef @.str.1095, ptr noundef %92, ptr noundef @.str.83)
  br label %94

94:                                               ; preds = %87, %80
  %95 = load i32, ptr %13, align 4
  %96 = icmp sgt i32 %95, 0
  br i1 %96, label %97, label %113

97:                                               ; preds = %94
  %98 = load ptr, ptr %6, align 8
  %99 = load ptr, ptr %7, align 8
  %100 = load ptr, ptr %8, align 8
  %101 = load i32, ptr %11, align 4
  %102 = load i32, ptr %13, align 4
  %103 = call zeroext i16 @elem_lv(ptr noundef %98, ptr noundef %99, ptr noundef %100, i32 noundef 5, i32 noundef 47, i32 noundef %101, i32 noundef %102, ptr noundef @.str.1144)
  %104 = zext i16 %103 to i32
  store i32 %104, ptr %12, align 4
  %105 = icmp ugt i32 %104, 0
  br i1 %105, label %106, label %113

106:                                              ; preds = %97
  %107 = load i32, ptr %12, align 4
  %108 = load i32, ptr %11, align 4
  %109 = add i32 %108, %107
  store i32 %109, ptr %11, align 4
  %110 = load i32, ptr %12, align 4
  %111 = load i32, ptr %13, align 4
  %112 = sub i32 %111, %110
  store i32 %112, ptr %13, align 4
  br label %120

113:                                              ; preds = %97, %94
  %114 = load ptr, ptr %7, align 8
  %115 = load ptr, ptr %8, align 8
  %116 = load ptr, ptr %6, align 8
  %117 = load i32, ptr %11, align 4
  %118 = call ptr @get_gsm_a_msg_string(i32 noundef 5, i32 noundef 47)
  %119 = call ptr (ptr, ptr, ptr, ptr, i32, i32, ptr, ...) @proto_tree_add_expert_format(ptr noundef %114, ptr noundef %115, ptr noundef @ei_gsm_a_gm_missing_mandatory_element, ptr noundef %116, i32 noundef %117, i32 noundef 0, ptr noundef @.str.1095, ptr noundef %118, ptr noundef @.str.1144)
  br label %120

120:                                              ; preds = %113, %106
  %121 = load i32, ptr %13, align 4
  %122 = icmp sgt i32 %121, 0
  br i1 %122, label %123, label %139

123:                                              ; preds = %120
  %124 = load ptr, ptr %6, align 8
  %125 = load ptr, ptr %7, align 8
  %126 = load ptr, ptr %8, align 8
  %127 = load i32, ptr %11, align 4
  %128 = load i32, ptr %13, align 4
  %129 = call zeroext i16 @elem_lv(ptr noundef %124, ptr noundef %125, ptr noundef %126, i32 noundef 5, i32 noundef 43, i32 noundef %127, i32 noundef %128, ptr noundef null)
  %130 = zext i16 %129 to i32
  store i32 %130, ptr %12, align 4
  %131 = icmp ugt i32 %130, 0
  br i1 %131, label %132, label %139

132:                                              ; preds = %123
  %133 = load i32, ptr %12, align 4
  %134 = load i32, ptr %11, align 4
  %135 = add i32 %134, %133
  store i32 %135, ptr %11, align 4
  %136 = load i32, ptr %12, align 4
  %137 = load i32, ptr %13, align 4
  %138 = sub i32 %137, %136
  store i32 %138, ptr %13, align 4
  br label %146

139:                                              ; preds = %123, %120
  %140 = load ptr, ptr %7, align 8
  %141 = load ptr, ptr %8, align 8
  %142 = load ptr, ptr %6, align 8
  %143 = load i32, ptr %11, align 4
  %144 = call ptr @get_gsm_a_msg_string(i32 noundef 5, i32 noundef 43)
  %145 = call ptr (ptr, ptr, ptr, ptr, i32, i32, ptr, ...) @proto_tree_add_expert_format(ptr noundef %140, ptr noundef %141, ptr noundef @ei_gsm_a_gm_missing_mandatory_element, ptr noundef %142, i32 noundef %143, i32 noundef 0, ptr noundef @.str.1095, ptr noundef %144, ptr noundef @.str.83)
  br label %146

146:                                              ; preds = %139, %132
  %147 = load i32, ptr %13, align 4
  %148 = icmp sle i32 %147, 0
  br i1 %148, label %149, label %150

149:                                              ; preds = %146
  store i32 1, ptr %14, align 4
  br label %201

150:                                              ; preds = %146
  %151 = load ptr, ptr %6, align 8
  %152 = load ptr, ptr %7, align 8
  %153 = load ptr, ptr %8, align 8
  %154 = load i32, ptr %11, align 4
  %155 = load i32, ptr %13, align 4
  %156 = call zeroext i16 @elem_tlv(ptr noundef %151, ptr noundef %152, ptr noundef %153, i8 noundef zeroext 53, i32 noundef 5, i32 noundef 60, i32 noundef %154, i32 noundef %155, ptr noundef null)
  %157 = zext i16 %156 to i32
  store i32 %157, ptr %12, align 4
  %158 = icmp ugt i32 %157, 0
  br i1 %158, label %159, label %166

159:                                              ; preds = %150
  %160 = load i32, ptr %12, align 4
  %161 = load i32, ptr %11, align 4
  %162 = add i32 %161, %160
  store i32 %162, ptr %11, align 4
  %163 = load i32, ptr %12, align 4
  %164 = load i32, ptr %13, align 4
  %165 = sub i32 %164, %163
  store i32 %165, ptr %13, align 4
  br label %166

166:                                              ; preds = %159, %150
  %167 = load i32, ptr %13, align 4
  %168 = icmp sle i32 %167, 0
  br i1 %168, label %169, label %170

169:                                              ; preds = %166
  store i32 1, ptr %14, align 4
  br label %201

170:                                              ; preds = %166
  %171 = load ptr, ptr %6, align 8
  %172 = load ptr, ptr %7, align 8
  %173 = load ptr, ptr %8, align 8
  %174 = load i32, ptr %11, align 4
  %175 = call zeroext i16 @elem_tv_short(ptr noundef %171, ptr noundef %172, ptr noundef %173, i8 noundef zeroext -64, i32 noundef 5, i32 noundef 75, i32 noundef %174, ptr noundef null)
  %176 = zext i16 %175 to i32
  store i32 %176, ptr %12, align 4
  %177 = icmp ugt i32 %176, 0
  br i1 %177, label %178, label %185

178:                                              ; preds = %170
  %179 = load i32, ptr %12, align 4
  %180 = load i32, ptr %11, align 4
  %181 = add i32 %180, %179
  store i32 %181, ptr %11, align 4
  %182 = load i32, ptr %12, align 4
  %183 = load i32, ptr %13, align 4
  %184 = sub i32 %183, %182
  store i32 %184, ptr %13, align 4
  br label %185

185:                                              ; preds = %178, %170
  %186 = load i32, ptr %13, align 4
  %187 = icmp ugt i32 %186, 0
  br i1 %187, label %188, label %200

188:                                              ; preds = %185
  %189 = load ptr, ptr %7, align 8
  %190 = load ptr, ptr %8, align 8
  %191 = load ptr, ptr %6, align 8
  %192 = load i32, ptr %11, align 4
  %193 = load i32, ptr %13, align 4
  %194 = sub i32 %193, 0
  %195 = call ptr @proto_tree_add_expert(ptr noundef %189, ptr noundef %190, ptr noundef @ei_gsm_a_gm_extraneous_data, ptr noundef %191, i32 noundef %192, i32 noundef %194)
  %196 = load i32, ptr %13, align 4
  %197 = sub i32 %196, 0
  %198 = load i32, ptr %11, align 4
  %199 = add i32 %198, %197
  store i32 %199, ptr %11, align 4
  br label %200

200:                                              ; preds = %188, %185
  store i32 0, ptr %14, align 4
  br label %201

201:                                              ; preds = %200, %169, %149
  call void @llvm.lifetime.end.p0(i64 4, ptr %13) #6
  call void @llvm.lifetime.end.p0(i64 4, ptr %12) #6
  call void @llvm.lifetime.end.p0(i64 4, ptr %11) #6
  %202 = load i32, ptr %14, align 4
  switch i32 %202, label %204 [
    i32 0, label %203
    i32 1, label %203
  ]

203:                                              ; preds = %201, %201
  ret void

204:                                              ; preds = %201
  unreachable
}