; Function Attrs: null_pointer_is_valid sspstrong uwtable
define internal void @dtap_sm_act_mbms_req(ptr noundef %0, ptr noundef %1, ptr noundef initializes((348, 352)) %2, i32 noundef %3, i32 noundef %4) #1 {
  %6 = getelementptr inbounds nuw i8, ptr %2, i64 348
  store i32 1, ptr %6, align 4
  %7 = icmp sgt i32 %4, 0
  br i1 %7, label %8, label %14

8:                                                ; preds = %5
  %9 = tail call zeroext i16 @elem_v(ptr noundef %0, ptr noundef %1, ptr noundef %2, i32 noundef 5, i32 noundef 61, i32 noundef %3, ptr noundef nonnull @.str.1143)
  %.not = icmp eq i16 %9, 0
  br i1 %.not, label %14, label %10

10:                                               ; preds = %8
  %11 = zext i16 %9 to i32
  %12 = add i32 %3, %11
  %13 = sub nsw i32 %4, %11
  br label %17

14:                                               ; preds = %8, %5
  %15 = tail call ptr @get_gsm_a_msg_string(i32 noundef 5, i32 noundef 61)
  %16 = tail call ptr (ptr, ptr, ptr, ptr, i32, i32, ptr, ...) @proto_tree_add_expert_format(ptr noundef %1, ptr noundef %2, ptr noundef nonnull @ei_gsm_a_gm_missing_mandatory_element, ptr noundef %0, i32 noundef %3, i32 noundef 0, ptr noundef nonnull @.str.1095, ptr noundef %15, ptr noundef nonnull @.str.1143)
  br label %17

17:                                               ; preds = %14, %10
  %.097 = phi i32 [ %12, %10 ], [ %3, %14 ]
  %.0 = phi i32 [ %13, %10 ], [ %4, %14 ]
  %18 = icmp sgt i32 %.0, 0
  br i1 %18, label %19, label %25

19:                                               ; preds = %17
  %20 = tail call zeroext i16 @elem_v(ptr noundef %0, ptr noundef %1, ptr noundef %2, i32 noundef 5, i32 noundef 54, i32 noundef %.097, ptr noundef nonnull @.str.1128)
  %.not112 = icmp eq i16 %20, 0
  br i1 %.not112, label %25, label %21

21:                                               ; preds = %19
  %22 = zext i16 %20 to i32
  %23 = add i32 %.097, %22
  %24 = sub nsw i32 %.0, %22
  br label %28

25:                                               ; preds = %19, %17
  %26 = tail call ptr @get_gsm_a_msg_string(i32 noundef 5, i32 noundef 54)
  %27 = tail call ptr (ptr, ptr, ptr, ptr, i32, i32, ptr, ...) @proto_tree_add_expert_format(ptr noundef %1, ptr noundef %2, ptr noundef nonnull @ei_gsm_a_gm_missing_mandatory_element, ptr noundef %0, i32 noundef %.097, i32 noundef 0, ptr noundef nonnull @.str.1095, ptr noundef %26, ptr noundef nonnull @.str.1128)
  br label %28

28:                                               ; preds = %25, %21
  %.198 = phi i32 [ %23, %21 ], [ %.097, %25 ]
  %.1 = phi i32 [ %24, %21 ], [ %.0, %25 ]
  %29 = icmp sgt i32 %.1, 0
  br i1 %29, label %30, label %36

30:                                               ; preds = %28
  %31 = tail call zeroext i16 @elem_lv(ptr noundef %0, ptr noundef %1, ptr noundef %2, i32 noundef 5, i32 noundef 59, i32 noundef %.198, i32 noundef %.1, ptr noundef null)
  %.not113 = icmp eq i16 %31, 0
  br i1 %.not113, label %36, label %32

32:                                               ; preds = %30
  %33 = zext i16 %31 to i32
  %34 = add i32 %.198, %33
  %35 = sub nsw i32 %.1, %33
  br label %39

36:                                               ; preds = %30, %28
  %37 = tail call ptr @get_gsm_a_msg_string(i32 noundef 5, i32 noundef 59)
  %38 = tail call ptr (ptr, ptr, ptr, ptr, i32, i32, ptr, ...) @proto_tree_add_expert_format(ptr noundef %1, ptr noundef %2, ptr noundef nonnull @ei_gsm_a_gm_missing_mandatory_element, ptr noundef %0, i32 noundef %.198, i32 noundef 0, ptr noundef nonnull @.str.1095, ptr noundef %37, ptr noundef nonnull @.str.83)
  br label %39

39:                                               ; preds = %36, %32
  %.299 = phi i32 [ %34, %32 ], [ %.198, %36 ]
  %.2 = phi i32 [ %35, %32 ], [ %.1, %36 ]
  %40 = icmp sgt i32 %.2, 0
  br i1 %40, label %41, label %47

41:                                               ; preds = %39
  %42 = tail call zeroext i16 @elem_lv(ptr noundef %0, ptr noundef %1, ptr noundef %2, i32 noundef 5, i32 noundef 47, i32 noundef %.299, i32 noundef %.2, ptr noundef nonnull @.str.1144)
  %.not114 = icmp eq i16 %42, 0
  br i1 %.not114, label %47, label %43

43:                                               ; preds = %41
  %44 = zext i16 %42 to i32
  %45 = add i32 %.299, %44
  %46 = sub nsw i32 %.2, %44
  br label %50

47:                                               ; preds = %41, %39
  %48 = tail call ptr @get_gsm_a_msg_string(i32 noundef 5, i32 noundef 47)
  %49 = tail call ptr (ptr, ptr, ptr, ptr, i32, i32, ptr, ...) @proto_tree_add_expert_format(ptr noundef %1, ptr noundef %2, ptr noundef nonnull @ei_gsm_a_gm_missing_mandatory_element, ptr noundef %0, i32 noundef %.299, i32 noundef 0, ptr noundef nonnull @.str.1095, ptr noundef %48, ptr noundef nonnull @.str.1144)
  br label %50

50:                                               ; preds = %47, %43
  %.3100 = phi i32 [ %45, %43 ], [ %.299, %47 ]
  %.3 = phi i32 [ %46, %43 ], [ %.2, %47 ]
  %51 = icmp sgt i32 %.3, 0
  br i1 %51, label %52, label %58

52:                                               ; preds = %50
  %53 = tail call zeroext i16 @elem_lv(ptr noundef %0, ptr noundef %1, ptr noundef %2, i32 noundef 5, i32 noundef 43, i32 noundef %.3100, i32 noundef %.3, ptr noundef null)
  %.not115 = icmp eq i16 %53, 0
  br i1 %.not115, label %58, label %54

54:                                               ; preds = %52
  %55 = zext i16 %53 to i32
  %56 = add i32 %.3100, %55
  %57 = sub nsw i32 %.3, %55
  br label %61

58:                                               ; preds = %52, %50
  %59 = tail call ptr @get_gsm_a_msg_string(i32 noundef 5, i32 noundef 43)
  %60 = tail call ptr (ptr, ptr, ptr, ptr, i32, i32, ptr, ...) @proto_tree_add_expert_format(ptr noundef %1, ptr noundef %2, ptr noundef nonnull @ei_gsm_a_gm_missing_mandatory_element, ptr noundef %0, i32 noundef %.3100, i32 noundef 0, ptr noundef nonnull @.str.1095, ptr noundef %59, ptr noundef nonnull @.str.83)
  br label %61

61:                                               ; preds = %58, %54
  %.4101 = phi i32 [ %56, %54 ], [ %.3100, %58 ]
  %.4 = phi i32 [ %57, %54 ], [ %.3, %58 ]
  %62 = icmp slt i32 %.4, 1
  br i1 %62, label %76, label %63

63:                                               ; preds = %61
  %64 = tail call zeroext i16 @elem_tlv(ptr noundef %0, ptr noundef %1, ptr noundef %2, i8 noundef zeroext 53, i32 noundef 5, i32 noundef 60, i32 noundef %.4101, i32 noundef %.4, ptr noundef null)
  %65 = zext i16 %64 to i32
  %66 = sub nsw i32 %.4, %65
  %67 = icmp slt i32 %66, 1
  br i1 %67, label %76, label %68

68:                                               ; preds = %63
  %69 = add i32 %.4101, %65
  %70 = tail call zeroext i16 @elem_tv_short(ptr noundef %0, ptr noundef %1, ptr noundef %2, i8 noundef zeroext -64, i32 noundef 5, i32 noundef 75, i32 noundef %69, ptr noundef null)
  %71 = zext i16 %70 to i32
  %.not118 = icmp eq i32 %66, %71
  br i1 %.not118, label %76, label %72

72:                                               ; preds = %68
  %73 = sub nsw i32 %66, %71
  %74 = add i32 %69, %71
  %75 = tail call ptr @proto_tree_add_expert(ptr noundef %1, ptr noundef %2, ptr noundef nonnull @ei_gsm_a_gm_extraneous_data, ptr noundef %0, i32 noundef %74, i32 noundef %73)
  br label %76

76:                                               ; preds = %68, %72, %63, %61
  ret void
}